target datalayout = "e-m:e-p270:32:32-p271:32:32-p272:64:64-i64:64-i128:128-f80:128-n8:16:32:64-S128"
target triple = "x86_64-pc-linux-gnu"

%"class.std::__shared_count" = type { ptr }
%"class.duckdb::unique_ptr" = type { %"class.std::unique_ptr" }
%"class.std::unique_ptr" = type { %"struct.std::__uniq_ptr_data" }
%"struct.std::__uniq_ptr_data" = type { %"class.std::__uniq_ptr_impl" }
%"class.std::__uniq_ptr_impl" = type { %"class.std::tuple" }
%"class.std::tuple" = type { %"struct.std::_Tuple_impl" }
%"struct.std::_Tuple_impl" = type { %"struct.std::_Head_base.2" }
%"struct.std::_Head_base.2" = type { ptr }
%"class.duckdb::CompressionInfo" = type { i64 }
%"struct.duckdb::roaring::ContainerMetadataCollection" = type { %"class.duckdb::vector.73", %"class.duckdb::vector.73", %"class.duckdb::vector.73", i64, i64, i64 }
%"class.duckdb::vector.73" = type { %"class.std::vector.74" }
%"class.std::vector.74" = type { %"struct.std::_Vector_base.75" }
%"struct.std::_Vector_base.75" = type { %"struct.std::_Vector_base<unsigned char, std::allocator<unsigned char>>::_Vector_impl" }
%"struct.std::_Vector_base<unsigned char, std::allocator<unsigned char>>::_Vector_impl" = type { %"struct.std::_Vector_base<unsigned char, std::allocator<unsigned char>>::_Vector_impl_data" }
%"struct.std::_Vector_base<unsigned char, std::allocator<unsigned char>>::_Vector_impl_data" = type { ptr, ptr, ptr }
%"struct.duckdb::roaring::RoaringCompressState" = type { %"struct.duckdb::CompressionState", %"class.duckdb::unique_ptr", ptr, %"struct.duckdb::roaring::ContainerCompressionState", %"struct.duckdb::roaring::ContainerMetadataCollection", ptr, ptr, ptr, %"class.duckdb::unique_ptr.111", %"class.duckdb::BufferHandle", ptr, ptr, i64 }
%"struct.duckdb::CompressionState" = type { ptr, %"class.duckdb::CompressionInfo" }
%"struct.duckdb::roaring::ContainerCompressionState" = type { i16, i8, i16, i16, i8, ptr, ptr, [2 x ptr], [2 x ptr], [4 x %"struct.duckdb::roaring::RunContainerRLEPair"], [2 x [8 x i16]], i16, [2 x i16], [2 x ptr], ptr, [2 x [248 x i8]], [248 x i8], [2 x [8 x i8]], [8 x i8], ptr, i8, ptr }
%"struct.duckdb::roaring::RunContainerRLEPair" = type { i16, i16 }
%"class.duckdb::unique_ptr.111" = type { %"class.std::unique_ptr.112" }
%"class.std::unique_ptr.112" = type { %"struct.std::__uniq_ptr_data.113" }
%"struct.std::__uniq_ptr_data.113" = type { %"class.std::__uniq_ptr_impl.114" }
%"class.std::__uniq_ptr_impl.114" = type { %"class.std::tuple.115" }
%"class.std::tuple.115" = type { %"struct.std::_Tuple_impl.116" }
%"struct.std::_Tuple_impl.116" = type { %"struct.std::_Head_base.119" }
%"struct.std::_Head_base.119" = type { ptr }
%"class.duckdb::BufferHandle" = type { %"class.duckdb::shared_ptr.120", %"class.duckdb::optional_ptr.124" }
%"class.duckdb::shared_ptr.120" = type { %"class.std::shared_ptr.121" }
%"class.std::shared_ptr.121" = type { %"class.std::__shared_ptr.122" }
%"class.std::__shared_ptr.122" = type { ptr, %"class.std::__shared_count" }
%"class.duckdb::optional_ptr.124" = type { ptr }

; Function Attrs: mustprogress nounwind uwtable
define noundef i64 @_ZN6duckdb7roaring20RoaringCompressState5CountERS1_(ptr noundef nonnull align 8 dereferenceable(1144) %0) #2 align 2 {
  %2 = alloca ptr, align 8
  %3 = alloca ptr, align 8
  store ptr %0, ptr %2, align 8, !tbaa !152
  call void @llvm.lifetime.start.p0(i64 8, ptr %3) #19
  %4 = load ptr, ptr %2, align 8, !tbaa !152
  %5 = getelementptr inbounds nuw %"struct.duckdb::roaring::RoaringCompressState", ptr %4, i32 0, i32 3
  store ptr %5, ptr %3, align 8, !tbaa !331
  %6 = load ptr, ptr %3, align 8, !tbaa !331
  %7 = getelementptr inbounds nuw %"struct.duckdb::roaring::ContainerCompressionState", ptr %6, i32 0, i32 2
  %8 = load i16, ptr %7, align 4, !tbaa !336
  %9 = zext i16 %8 to i32
  %10 = load ptr, ptr %3, align 8, !tbaa !331
  %11 = getelementptr inbounds nuw %"struct.duckdb::roaring::ContainerCompressionState", ptr %10, i32 0, i32 0
  %12 = load i16, ptr %11, align 8, !tbaa !333
  %13 = zext i16 %12 to i32
  %14 = add nsw i32 %9, %13
  %15 = sext i32 %14 to i64
  call void @llvm.lifetime.end.p0(i64 8, ptr %3) #19
  ret i64 %15
}