; Function Attrs: mustprogress nofree norecurse nosync nounwind willreturn memory(argmem: read) uwtable
define noundef range(i64 0, 131071) i64 @_ZN6duckdb7roaring20RoaringCompressState5CountERS1_(ptr noundef nonnull readonly align 8 captures(none) dereferenceable(1144) %0) local_unnamed_addr #9 align 2 {
  %2 = getelementptr inbounds nuw i8, ptr %0, i64 32
  %3 = getelementptr inbounds nuw i8, ptr %0, i64 36
  %4 = load i16, ptr %3, align 4, !tbaa !340
  %5 = zext i16 %4 to i64
  %6 = load i16, ptr %2, align 8, !tbaa !330
  %7 = zext i16 %6 to i64
  %8 = add nuw nsw i64 %7, %5
  ret i64 %8
}